target datalayout = "e-m:e-p270:32:32-p271:32:32-p272:64:64-i64:64-i128:128-f80:128-n8:16:32:64-S128"
target triple = "x86_64-pc-linux-gnu"

@.str.692 = private unnamed_addr constant [3 x i8] c"\C2\B0\00", align 1
@.str.694 = private unnamed_addr constant [10 x i8] c"%d.%05d%s\00", align 1
@.str.695 = private unnamed_addr constant [11 x i8] c"-%d.%05d%s\00", align 1

; Function Attrs: nounwind uwtable
define internal void @fmt_heading(ptr noundef %0, i32 noundef %1) #0 {
  %3 = alloca ptr, align 8
  %4 = alloca i32, align 4
  store ptr %0, ptr %3, align 8
  store i32 %1, ptr %4, align 4
  %5 = load i32, ptr %4, align 4
  %6 = icmp sge i32 %5, 0
  br i1 %6, label %7, label %14

7:                                                ; preds = %2
  %8 = load ptr, ptr %3, align 8
  %9 = load i32, ptr %4, align 4
  %10 = sdiv i32 %9, 100000
  %11 = load i32, ptr %4, align 4
  %12 = srem i32 %11, 100000
  %13 = call i32 (ptr, i64, ptr, ...) @snprintf(ptr noundef %8, i64 noundef 240, ptr noundef @.str.694, i32 noundef %10, i32 noundef %12, ptr noundef @.str.692) #3
  br label %23

14:                                               ; preds = %2
  %15 = load ptr, ptr %3, align 8
  %16 = load i32, ptr %4, align 4
  %17 = sub i32 0, %16
  %18 = sdiv i32 %17, 100000
  %19 = load i32, ptr %4, align 4
  %20 = sub i32 0, %19
  %21 = srem i32 %20, 100000
  %22 = call i32 (ptr, i64, ptr, ...) @snprintf(ptr noundef %15, i64 noundef 240, ptr noundef @.str.695, i32 noundef %18, i32 noundef %21, ptr noundef @.str.692) #3
  br label %23

23:                                               ; preds = %14, %7
  ret void
}